gavrasm Gerd's AVR assembler version 5.4 (C)2022 by DG4FAC
----------------------------------------------------------
Source file: PWM_ide.asm
Hex file:    PWM_ide.hex
Eeprom file: PWM_ide.eep
Compiled:    13.04.2023, 04:19:13
Pass:        2
     1: ;
     2: ; AssemblerApplication1.asm
     3: ;
     4: ; Created: 06.02.2023 18:38:51
     5: ; Author : Georgul
     6: ;
     7: .device atmega328p
     8: 
     9: LABEL_8:
    10: 000000   940C  JMP    LABEL_1
        000001   0034
    11: 000002   940C  JMP    LABEL_2
        000003   0046
    12: 000004   940C  JMP    LABEL_2
        000005   0046
    13: 000006   940C  JMP    LABEL_2
        000007   0046
    14: 000008   940C  JMP    LABEL_2
        000009   0046
    15: 00000A   940C  JMP    LABEL_2
        00000B   0046
    16: 00000C   940C  JMP    LABEL_2
        00000D   0046
    17: 00000E   940C  JMP    LABEL_2
        00000F   0046
    18: 000010   940C  JMP    LABEL_2
        000011   0046
    19: 000012   940C  JMP    LABEL_2
        000013   0046
    20: 000014   940C  JMP    LABEL_2
        000015   0046
    21: 000016   940C  JMP    LABEL_2
        000017   0046
    22: 000018   940C  JMP    LABEL_2
        000019   0046
    23: 00001A   940C  JMP    LABEL_2
        00001B   0046
    24: 00001C   940C  JMP    LABEL_2
        00001D   0046
    25: 00001E   940C  JMP    LABEL_2
        00001F   0046
    26: 000020   940C  JMP    LABEL_3
        000021   006D
    27: 000022   940C  JMP    LABEL_2
        000023   0046
    28: 000024   940C  JMP    LABEL_2
        000025   0046
    29: 000026   940C  JMP    LABEL_2
        000027   0046
    30: 000028   940C  JMP    LABEL_2
        000029   0046
    31: 00002A   940C  JMP    LABEL_2
        00002B   0046
    32: 00002C   940C  JMP    LABEL_2
        00002D   0046
    33: 00002E   940C  JMP    LABEL_2
        00002F   0046
    34: 000030   940C  JMP    LABEL_2
        000031   0046
    35: 000032   940C  JMP    LABEL_2
        000033   0046
    36: LABEL_1:
    37: 000034   2411  CLR    R1
    38: 000035   BE1F  OUT    SREG, R1
    39: 000036   EFCF  SER    R28
    40: 000037   E0D8  LDI    R29, 8
    41: 000038   BFDE  OUT    SPH, R29
    42: 000039   BFCD  OUT    SPL, R28
    43: 00003A   E021  LDI    R18, 1
    44: 00003B   E0A0  LDI    R26, 0
    45: 00003C   E0B1  LDI    R27, 1
    46: 00003D   C001  RJMP   LABEL_4
    47: LABEL_5:
    48: 00003E   921D  ST     X+, R1
    49: LABEL_4:
    50: 00003F   30A9  CPI    R26, 9
    51: 000040   07B2  CPC    R27, R18
    52: 000041   F7E1  BRNE   LABEL_5
    53: 000042   940E  CALL   LABEL_6
        000043   00B7
    54: 000044   940C  JMP    LABEL_7
        000045   00EA
    55: LABEL_2:
    56: 000046   940C  JMP    LABEL_8
        000047   0000
    57: LABEL_13:
    58: 000048   B73F  IN     R19, SREG
    59: 000049   94F8  CLI    
    60: 00004A   9180  LDS    R24, 261
        00004B   0105
    61: 00004C   9190  LDS    R25, 262
        00004D   0106
    62: 00004E   91A0  LDS    R26, 263
        00004F   0107
    63: 000050   91B0  LDS    R27, 264
        000051   0108
    64: 000052   B526  IN     R18, TCNT0
    65: 000053   9BA8  SBIS   TIFR0, 0
    66: 000054   C005  RJMP   LABEL_9
    67: 000055   3F2F  CPI    R18, 255
    68: 000056   F019  BREQ   LABEL_9
    69: 000057   9601  ADIW   R24, 1
    70: 000058   1FAA  ROL    R26
    71: 000059   1FBB  ROL    R27
    72: LABEL_9:
    73: 00005A   BF3F  OUT    SREG, R19
    74: 00005B   2FBA  MOV    R27, R26
    75: 00005C   2FA9  MOV    R26, R25
    76: 00005D   2F98  MOV    R25, R24
    77: 00005E   2788  CLR    R24
    78: 00005F   01BC  MOVW   R22, R24
    79: 000060   01CD  MOVW   R24, R26
    80: 000061   0F66  LSL    R22
    81: 000062   1F77  ROL    R23
    82: 000063   1F88  ROL    R24
    83: 000064   1F99  ROL    R25
    84: 000065   E042  LDI    R20, 2
    85: LABEL_10:
    86: 000066   0F66  LSL    R22
    87: 000067   1F77  ROL    R23
    88: 000068   1F88  ROL    R24
    89: 000069   1F99  ROL    R25
    90: 00006A   954A  DEC    R20
    91: 00006B   F7D1  BRNE   LABEL_10
    92: 00006C   9508  RET    
    93: LABEL_3:
    94: 00006D   921F  PUSH   R1
    95: 00006E   920F  PUSH   R0
    96: 00006F   B60F  IN     R0, SREG
    97: 000070   920F  PUSH   R0
    98: 000071   2411  CLR    R1
    99: 000072   932F  PUSH   R18
   100: 000073   933F  PUSH   R19
   101: 000074   938F  PUSH   R24
   102: 000075   939F  PUSH   R25
   103: 000076   93AF  PUSH   R26
   104: 000077   93BF  PUSH   R27
   105: 000078   9180  LDS    R24, 257
        000079   0101
   106: 00007A   9190  LDS    R25, 258
        00007B   0102
   107: 00007C   91A0  LDS    R26, 259
        00007D   0103
   108: 00007E   91B0  LDS    R27, 260
        00007F   0104
   109: 000080   9130  LDS    R19, 256
        000081   0100
   110: 000082   E023  LDI    R18, 3
   111: 000083   0F22  LSL    R18
   112: 000084   372D  CPI    R18, 125
   113: 000085   F558  BRCC   LABEL_11
   114: 000086   9601  ADIW   R24, 1
   115: 000087   1FAA  ROL    R26
   116: 000088   1FBB  ROL    R27
   117: LABEL_12:
   118: 000089   9320  STS    256, R18
        00008A   0100
   119: 00008B   9380  STS    257, R24
        00008C   0101
   120: 00008D   9390  STS    258, R25
        00008E   0102
   121: 00008F   93A0  STS    259, R26
        000090   0103
   122: 000091   93B0  STS    260, R27
        000092   0104
   123: 000093   9180  LDS    R24, 261
        000094   0105
   124: 000095   9190  LDS    R25, 262
        000096   0106
   125: 000097   91A0  LDS    R26, 263
        000098   0107
   126: 000099   91B0  LDS    R27, 264
        00009A   0108
   127: 00009B   9601  ADIW   R24, 1
   128: 00009C   1FAA  ROL    R26
   129: 00009D   1FBB  ROL    R27
   130: 00009E   9380  STS    261, R24
        00009F   0105
   131: 0000A0   9390  STS    262, R25
        0000A1   0106
   132: 0000A2   93A0  STS    263, R26
        0000A3   0107
   133: 0000A4   93B0  STS    264, R27
        0000A5   0108
   134: 0000A6   91BF  POP    R27
   135: 0000A7   91AF  POP    R26
   136: 0000A8   919F  POP    R25
   137: 0000A9   918F  POP    R24
   138: 0000AA   913F  POP    R19
   139: 0000AB   912F  POP    R18
   140: 0000AC   900F  POP    R0
   141: 0000AD   BE0F  OUT    SREG, R0
   142: 0000AE   900F  POP    R0
   143: 0000AF   901F  POP    R1
   144: 0000B0   9518  RETI   
   145: LABEL_11:
   146: 0000B1   E826  LDI    R18, 134
   147: 0000B2   0F22  LSL    R18
   148: 0000B3   9602  ADIW   R24, 2
   149: 0000B4   1FAA  ROL    R26
   150: 0000B5   1FBB  ROL    R27
   151: 0000B6   CFD2  RJMP   LABEL_12
   152: LABEL_6:
   153: 0000B7   94F8  CLI    
   154: 0000B8   9A56  SBI    DDRD, 6
   155: 0000B9   9A55  SBI    DDRD, 5
   156: 0000BA   EA83  LDI    R24, 163
   157: 0000BB   BD84  OUT    TCCR0A, R24
   158: 0000BC   E084  LDI    R24, 4
   159: 0000BD   BD85  OUT    TCCR0B, R24
   160: 0000BE   9478  SEI    
   161: 0000BF   E0C1  LDI    R28, 1
   162: LABEL_15:
   163: 0000C0   BDC8  OUT    OCR0B, R28
   164: 0000C1   2F8C  MOV    R24, R28
   165: 0000C2   9580  COM    R24
   166: 0000C3   BD87  OUT    OCR0A, R24
   167: 0000C4   940E  CALL   LABEL_13
        0000C5   0048
   168: 0000C6   014B  MOVW   R8, R22
   169: 0000C7   015C  MOVW   R10, R24
   170: 0000C8   E081  LDI    R24, 1
   171: 0000C9   2EC8  MOV    R12, R24
   172: 0000CA   2CD1  MOV    R13, R1
   173: 0000CB   2CE1  MOV    R14, R1
   174: 0000CC   2CF1  MOV    R15, R1
   175: LABEL_14:
   176: 0000CD   940E  CALL   LABEL_13
        0000CE   0048
   177: 0000CF   1968  SUB    R22, R8
   178: 0000D0   0979  SBC    R23, R9
   179: 0000D1   098A  SBC    R24, R10
   180: 0000D2   099B  SBC    R25, R11
   181: 0000D3   3E68  CPI    R22, 232
   182: 0000D4   4073  SBCI   R23, 3
   183: 0000D5   0581  CPC    R24, R1
   184: 0000D6   0591  CPC    R25, R1
   185: 0000D7   F3A8  BRCS   LABEL_14
   186: 0000D8   E021  LDI    R18, 1
   187: 0000D9   1AC2  SUB    R12, R18
   188: 0000DA   08D1  SBC    R13, R1
   189: 0000DB   08E1  SBC    R14, R1
   190: 0000DC   08F1  SBC    R15, R1
   191: 0000DD   EE88  LDI    R24, 232
   192: 0000DE   0C88  LSL    R8
   193: 0000DF   E083  LDI    R24, 3
   194: 0000E0   1C99  ROL    R9
   195: 0000E1   1CAA  ROL    R10
   196: 0000E2   1CBB  ROL    R11
   197: 0000E3   14C1  CP     R12, R1
   198: 0000E4   04D1  CPC    R13, R1
   199: 0000E5   04E1  CPC    R14, R1
   200: 0000E6   04F1  CPC    R15, R1
   201: 0000E7   F729  BRNE   LABEL_14
   202: 0000E8   5FCF  SUBI   R28, 255
   203: 0000E9   CFD6  RJMP   LABEL_15
   204: LABEL_7:
   205: 0000EA   94F8  CLI    
   206: LABEL_16:
   207: 0000EB   CFFF  RJMP   LABEL_16

Program             :      236 words.
Constants           :        0 words.
Total program memory:      236 words.
Eeprom space        :        0 bytes.
Data segment        :        0 bytes.
Compilation completed, no errors.
Compilation ended 13.04.2023, 04:19:13
